Certificate:
    Data:
        Version: 3 (0x2)
        Serial Number:
            e9:14:07:6a:cf:99:c2:97:77:c5:c1:3a:88:bb:2d:39
        Signature Algorithm: sha256WithRSAEncryption
        Issuer: CN=SnakeOil CA
        Validity
            Not Before: Aug 25 06:50:09 2020 GMT
            Not After : Aug 13 06:50:09 2030 GMT
        Subject: CN=snakeoil
        Subject Public Key Info:
            Public Key Algorithm: rsaEncryption
                RSA Public-Key: (2048 bit)
                Modulus:
                    00:d7:4b:97:0d:2c:0b:67:7e:6a:84:80:72:91:85:
                    e1:48:f9:10:ca:94:4a:24:59:4a:bc:d3:68:11:36:
                    59:2a:0a:93:03:92:fb:f6:93:2d:c3:75:e7:b0:02:
                    cb:eb:53:2c:18:32:73:22:52:0b:96:fc:e6:1f:27:
                    4b:95:f1:2b:aa:36:e2:bc:7b:4c:1f:78:e2:6e:f6:
                    c8:ec:7e:81:93:4a:28:4b:ec:38:2a:6f:a2:fe:ef:
                    b4:7e:c4:27:89:b6:91:91:b8:85:2d:fa:50:e0:e2:
                    87:91:27:34:5e:bd:6d:9f:18:6e:33:1b:df:1b:e2:
                    48:9d:16:cd:fc:77:1e:5c:0c:a5:db:06:38:5c:a1:
                    26:7f:c9:4f:46:e0:7a:33:ae:d9:b9:5a:d6:12:07:
                    f0:f6:5d:22:cc:21:65:34:81:f8:b7:cb:56:f9:3a:
                    3b:ea:9e:06:26:c8:e5:14:79:f6:96:de:d8:c3:41:
                    25:3e:c1:62:0e:03:64:b1:64:8a:d3:2a:12:03:07:
                    7a:a4:99:7d:ca:af:c9:90:25:b9:c2:46:e9:ad:cb:
                    74:0f:5f:3a:40:99:ad:54:6a:ca:f1:da:44:05:3e:
                    3c:e0:d3:db:44:31:2d:77:9a:20:93:99:bb:b0:db:
                    d1:f8:3d:a4:dc:e9:6b:db:05:d3:64:ec:36:4c:19:
                    70:cf
                Exponent: 65537 (0x10001)
        X509v3 extensions:
            X509v3 Basic Constraints: 
                CA:FALSE
            X509v3 Subject Key Identifier: 
                01:EA:17:8A:EF:AB:70:74:3C:EA:47:08:DC:40:FA:13:B1:4E:EE:F6
            X509v3 Authority Key Identifier: 
                keyid:96:B3:F2:23:4C:54:ED:9E:B1:7A:6C:45:D7:A2:BD:22:35:DF:3D:B4
                DirName:/CN=SnakeOil CA
                serial:1A:FD:B2:C6:1E:AC:85:34:83:91:7E:E7:A8:8E:14:CC:19:90:C1:09

            X509v3 Extended Key Usage: 
                TLS Web Server Authentication
            X509v3 Key Usage: 
                Digital Signature, Key Encipherment
            X509v3 Subject Alternative Name: 
                DNS:snakeoil
    Signature Algorithm: sha256WithRSAEncryption
         6b:e7:05:c7:0e:6b:5b:72:20:8e:66:c4:30:4c:1e:68:8f:28:
         3f:73:a5:3a:a0:89:3a:92:f5:2d:a5:a8:b4:80:55:11:84:d1:
         be:77:d3:bb:fd:49:bb:fa:1d:7c:78:89:6d:96:2d:53:16:74:
         51:67:7c:b6:8f:ae:37:b9:f3:73:3b:97:7f:02:41:94:f1:95:
         74:07:01:99:f4:8f:51:92:c8:bb:2f:ef:c8:7d:3a:f4:66:f3:
         e6:d5:12:37:3f:89:65:08:2d:a3:8b:13:5b:3e:f9:e5:33:3d:
         f6:c9:17:27:9b:15:d1:6b:33:a6:fd:3b:7c:42:1f:09:38:b1:
         ed:01:e9:21:23:80:34:6e:0c:62:02:2e:5d:ac:39:c5:89:f2:
         8e:c9:6f:ce:a9:66:e1:ad:82:f5:37:bd:e1:79:76:23:f1:23:
         ef:f6:30:13:8a:f8:b5:eb:d0:86:39:61:ea:c4:54:ab:81:7e:
         b6:66:92:be:22:0d:6d:36:0d:89:3f:fb:2f:3a:a4:23:12:b8:
         9a:62:65:3e:9b:62:98:a8:3f:2b:22:44:95:2b:28:34:80:5d:
         c1:8f:cc:2b:32:07:b9:09:7e:bf:22:7a:d6:67:41:79:06:16:
         0a:4d:41:d2:64:60:ea:a1:39:7d:97:fc:d5:04:4e:f6:c0:56:
         f3:34:78:a1
-----BEGIN CERTIFICATE-----
MIIDbDCCAlSgAwIBAgIRAOkUB2rPmcKXd8XBOoi7LTkwDQYJKoZIhvcNAQELBQAw
FjEUMBIGA1UEAwwLU25ha2VPaWwgQ0EwHhcNMjAwODI1MDY1MDA5WhcNMzAwODEz
MDY1MDA5WjATMREwDwYDVQQDDAhzbmFrZW9pbDCCASIwDQYJKoZIhvcNAQEBBQAD
ggEPADCCAQoCggEBANdLlw0sC2d+aoSAcpGF4Uj5EMqUSiRZSrzTaBE2WSoKkwOS
+/aTLcN157ACy+tTLBgycyJSC5b85h8nS5XxK6o24rx7TB944m72yOx+gZNKKEvs
OCpvov7vtH7EJ4m2kZG4hS36UODih5EnNF69bZ8YbjMb3xviSJ0Wzfx3HlwMpdsG
OFyhJn/JT0bgejOu2bla1hIH8PZdIswhZTSB+LfLVvk6O+qeBibI5RR59pbe2MNB
JT7BYg4DZLFkitMqEgMHeqSZfcqvyZAlucJG6a3LdA9fOkCZrVRqyvHaRAU+PODT
20QxLXeaIJOZu7Db0fg9pNzpa9sF02TsNkwZcM8CAwEAAaOBtzCBtDAJBgNVHRME
AjAAMB0GA1UdDgQWBBQB6heK76twdDzqRwjcQPoTsU7u9jBRBgNVHSMESjBIgBSW
s/IjTFTtnrF6bEXXor0iNd89tKEapBgwFjEUMBIGA1UEAwwLU25ha2VPaWwgQ0GC
FBr9ssYerIU0g5F+56iOFMwZkMEJMBMGA1UdJQQMMAoGCCsGAQUFBwMBMAsGA1Ud
DwQEAwIFoDATBgNVHREEDDAKgghzbmFrZW9pbDANBgkqhkiG9w0BAQsFAAOCAQEA
a+cFxw5rW3IgjmbEMEweaI8oP3OlOqCJOpL1LaWotIBVEYTRvnfTu/1Ju/odfHiJ
bZYtUxZ0UWd8to+uN7nzczuXfwJBlPGVdAcBmfSPUZLIuy/vyH069Gbz5tUSNz+J
ZQgto4sTWz755TM99skXJ5sV0Wszpv07fEIfCTix7QHpISOANG4MYgIuXaw5xYny
jslvzqlm4a2C9Te94Xl2I/Ej7/YwE4r4tevQhjlh6sRUq4F+tmaSviINbTYNiT/7
LzqkIxK4mmJlPptimKg/KyJElSsoNIBdwY/MKzIHuQl+vyJ61mdBeQYWCk1B0mRg
6qE5fZf81QRO9sBW8zR4oQ==
-----END CERTIFICATE-----
